target datalayout = "e-m:e-p270:32:32-p271:32:32-p272:64:64-i64:64-i128:128-f80:128-n8:16:32:64-S128"
target triple = "x86_64-pc-linux-gnu"

%struct.RBignum = type { %struct.RBasic, %union.anon }
%struct.RBasic = type { i64, i64 }
%union.anon = type { %struct.anon, [8 x i8] }
%struct.anon = type { i64, ptr }

; Function Attrs: inlinehint nounwind sspstrong willreturn memory(read) uwtable
define internal i64 @RB_FL_TEST_RAW(i64 noundef %0, i64 noundef %1) #8 {
  %3 = alloca i64, align 8
  %4 = alloca i64, align 8
  store i64 %0, ptr %3, align 8, !tbaa !7
  store i64 %1, ptr %4, align 8, !tbaa !7
  %5 = load i64, ptr %3, align 8, !tbaa !7
  %6 = inttoptr i64 %5 to ptr
  %7 = getelementptr inbounds nuw %struct.RBasic, ptr %6, i32 0, i32 0
  %8 = load i64, ptr %7, align 8, !tbaa !17
  %9 = load i64, ptr %4, align 8, !tbaa !7
  %10 = and i64 %8, %9
  ret i64 %10
}

; Function Attrs: inlinehint nounwind sspstrong uwtable
define internal zeroext i1 @BIGNUM_EMBED_P(i64 noundef %0) #2 {
  %2 = alloca i64, align 8
  store i64 %0, ptr %2, align 8, !tbaa !7
  %3 = load i64, ptr %2, align 8, !tbaa !7
  %4 = call i64 @RB_FL_TEST_RAW(i64 noundef %3, i64 noundef 16384) #26
  %5 = icmp ne i64 %4, 0
  ret i1 %5
}

; Function Attrs: inlinehint nounwind sspstrong uwtable
define internal ptr @BIGNUM_DIGITS(i64 noundef %0) #2 {
  %2 = alloca ptr, align 8
  %3 = alloca i64, align 8
  store i64 %0, ptr %3, align 8, !tbaa !7
  %4 = load i64, ptr %3, align 8, !tbaa !7
  %5 = call zeroext i1 @BIGNUM_EMBED_P(i64 noundef %4)
  br i1 %5, label %6, label %11

6:                                                ; preds = %1
  %7 = load i64, ptr %3, align 8, !tbaa !7
  %8 = inttoptr i64 %7 to ptr
  %9 = getelementptr inbounds nuw %struct.RBignum, ptr %8, i32 0, i32 1
  %10 = getelementptr inbounds [6 x i32], ptr %9, i64 0, i64 0
  store ptr %10, ptr %2, align 8
  br label %17

11:                                               ; preds = %1
  %12 = load i64, ptr %3, align 8, !tbaa !7
  %13 = inttoptr i64 %12 to ptr
  %14 = getelementptr inbounds nuw %struct.RBignum, ptr %13, i32 0, i32 1
  %15 = getelementptr inbounds nuw %struct.anon, ptr %14, i32 0, i32 1
  %16 = load ptr, ptr %15, align 8, !tbaa !16
  store ptr %16, ptr %2, align 8
  br label %17

17:                                               ; preds = %11, %6
  %18 = load ptr, ptr %2, align 8
  ret ptr %18
}

; Function Attrs: inlinehint nounwind sspstrong uwtable
define internal i64 @BIGNUM_LEN(i64 noundef %0) #2 {
  %2 = alloca i64, align 8
  %3 = alloca i64, align 8
  %4 = alloca i64, align 8
  store i64 %0, ptr %3, align 8, !tbaa !7
  %5 = load i64, ptr %3, align 8, !tbaa !7
  %6 = call zeroext i1 @BIGNUM_EMBED_P(i64 noundef %5)
  br i1 %6, label %13, label %7

7:                                                ; preds = %1
  %8 = load i64, ptr %3, align 8, !tbaa !7
  %9 = inttoptr i64 %8 to ptr
  %10 = getelementptr inbounds nuw %struct.RBignum, ptr %9, i32 0, i32 1
  %11 = getelementptr inbounds nuw %struct.anon, ptr %10, i32 0, i32 0
  %12 = load i64, ptr %11, align 8, !tbaa !16
  store i64 %12, ptr %2, align 8
  br label %23

13:                                               ; preds = %1
  call void @llvm.lifetime.start.p0(i64 8, ptr %4) #24
  %14 = load i64, ptr %3, align 8, !tbaa !7
  %15 = inttoptr i64 %14 to ptr
  %16 = getelementptr inbounds nuw %struct.RBasic, ptr %15, i32 0, i32 0
  %17 = load i64, ptr %16, align 8, !tbaa !17
  store i64 %17, ptr %4, align 8, !tbaa !7
  %18 = load i64, ptr %4, align 8, !tbaa !7
  %19 = and i64 %18, 229376
  store i64 %19, ptr %4, align 8, !tbaa !7
  %20 = load i64, ptr %4, align 8, !tbaa !7
  %21 = lshr i64 %20, 15
  store i64 %21, ptr %4, align 8, !tbaa !7
  %22 = load i64, ptr %4, align 8, !tbaa !7
  store i64 %22, ptr %2, align 8
  call void @llvm.lifetime.end.p0(i64 8, ptr %4) #24
  br label %23

23:                                               ; preds = %13, %7
  %24 = load i64, ptr %2, align 8
  ret i64 %24
}

; Function Attrs: nounwind sspstrong uwtable
define hidden i64 @rb_big_odd_p(i64 noundef %0) #0 {
  %2 = alloca i64, align 8
  store i64 %0, ptr %2, align 8, !tbaa !7
  %3 = load i64, ptr %2, align 8, !tbaa !7
  %4 = call i64 @BIGNUM_LEN(i64 noundef %3)
  %5 = icmp ne i64 %4, 0
  br i1 %5, label %6, label %13

6:                                                ; preds = %1
  %7 = load i64, ptr %2, align 8, !tbaa !7
  %8 = call ptr @BIGNUM_DIGITS(i64 noundef %7)
  %9 = getelementptr i32, ptr %8, i64 0
  %10 = load i32, ptr %9, align 4, !tbaa !19
  %11 = and i32 %10, 1
  %12 = icmp ne i32 %11, 0
  br label %13

13:                                               ; preds = %6, %1
  %14 = phi i1 [ false, %1 ], [ %12, %6 ]
  %15 = select i1 %14, i64 20, i64 0
  ret i64 %15
}