; Function Attrs: mustprogress nofree norecurse nosync nounwind sspstrong willreturn memory(read, inaccessiblemem: none) uwtable
define hidden range(i64 0, 21) i64 @rb_big_odd_p(i64 noundef %0) local_unnamed_addr #13 {
  %2 = inttoptr i64 %0 to ptr
  %3 = load i64, ptr %2, align 8, !tbaa !11
  %4 = and i64 %3, 16384
  %.not.i = icmp eq i64 %4, 0
  br i1 %.not.i, label %BIGNUM_LEN.exit, label %BIGNUM_LEN.exit.thread

BIGNUM_LEN.exit:                                  ; preds = %1
  %5 = getelementptr inbounds nuw i8, ptr %2, i64 16
  %6 = load i64, ptr %5, align 8, !tbaa !13
  %.not = icmp eq i64 %6, 0
  br i1 %.not, label %15, label %9

BIGNUM_LEN.exit.thread:                           ; preds = %1
  %7 = and i64 %3, 229376
  %.not6 = icmp eq i64 %7, 0
  br i1 %.not6, label %15, label %.thread

.thread:                                          ; preds = %BIGNUM_LEN.exit.thread
  %8 = getelementptr inbounds nuw i8, ptr %2, i64 16
  br label %BIGNUM_DIGITS.exit

9:                                                ; preds = %BIGNUM_LEN.exit
  %10 = getelementptr inbounds nuw i8, ptr %2, i64 24
  %11 = load ptr, ptr %10, align 8, !tbaa !13
  br label %BIGNUM_DIGITS.exit

BIGNUM_DIGITS.exit:                               ; preds = %.thread, %9
  %.0.i4 = phi ptr [ %8, %.thread ], [ %11, %9 ]
  %12 = load i32, ptr %.0.i4, align 4, !tbaa !18
  %13 = and i32 %12, 1
  %.not2 = icmp eq i32 %13, 0
  %14 = select i1 %.not2, i64 0, i64 20
  br label %15

15:                                               ; preds = %BIGNUM_LEN.exit.thread, %BIGNUM_DIGITS.exit, %BIGNUM_LEN.exit
  %16 = phi i64 [ 0, %BIGNUM_LEN.exit ], [ %14, %BIGNUM_DIGITS.exit ], [ 0, %BIGNUM_LEN.exit.thread ]
  ret i64 %16
}